; Function Attrs: mustprogress uwtable
define hidden void @_ZN3sat6solver17push_reinit_stackERNS_6clauseE(ptr noundef nonnull align 8 dereferenceable(4408) %this, ptr noundef nonnull align 4 dereferenceable(20) %c) local_unnamed_addr #3 align 2 {
entry:
  %m_clauses_to_reinit = getelementptr inbounds i8, ptr %this, i64 3936
  %.b = load i1, ptr @_ZN3satL12null_literalE.0, align 4
  %0 = load ptr, ptr %m_clauses_to_reinit, align 8
  %cmp.i = icmp eq ptr %0, null
  br i1 %cmp.i, label %if.then.i, label %lor.lhs.false.i

lor.lhs.false.i:                                  ; preds = %entry
  %arrayidx.i = getelementptr inbounds i8, ptr %0, i64 -4
  %1 = load i32, ptr %arrayidx.i, align 4
  %arrayidx4.i = getelementptr inbounds i8, ptr %0, i64 -8
  %2 = load i32, ptr %arrayidx4.i, align 4
  %cmp5.i = icmp eq i32 %1, %2
  br i1 %cmp5.i, label %if.then.i, label %_ZN6vectorIN3sat14clause_wrapperELb0EjE9push_backEOS1_.exit

if.then.i:                                        ; preds = %lor.lhs.false.i, %entry
  tail call void @_ZN6vectorIN3sat14clause_wrapperELb0EjE13expand_vectorEv(ptr noundef nonnull align 8 dereferenceable(8) %m_clauses_to_reinit)
  %.pre.i = load ptr, ptr %m_clauses_to_reinit, align 8
  %arrayidx8.phi.trans.insert.i = getelementptr inbounds i8, ptr %.pre.i, i64 -4
  %.pre1.i = load i32, ptr %arrayidx8.phi.trans.insert.i, align 4
  br label %_ZN6vectorIN3sat14clause_wrapperELb0EjE9push_backEOS1_.exit

_ZN6vectorIN3sat14clause_wrapperELb0EjE9push_backEOS1_.exit: ; preds = %lor.lhs.false.i, %if.then.i
  %3 = phi i32 [ %.pre1.i, %if.then.i ], [ %1, %lor.lhs.false.i ]
  %4 = phi ptr [ %.pre.i, %if.then.i ], [ %0, %lor.lhs.false.i ]
  %5 = select i1 %.b, i32 -2, i32 0
  %idx.ext.i = zext i32 %3 to i64
  %add.ptr.i = getelementptr inbounds %"class.sat::clause_wrapper", ptr %4, i64 %idx.ext.i
  store ptr %c, ptr %add.ptr.i, align 8
  %ref.tmp.sroa.2.0.add.ptr.i.sroa_idx = getelementptr inbounds i8, ptr %add.ptr.i, i64 8
  store i32 %5, ptr %ref.tmp.sroa.2.0.add.ptr.i.sroa_idx, align 8
  %6 = load ptr, ptr %m_clauses_to_reinit, align 8
  %arrayidx10.i = getelementptr inbounds i8, ptr %6, i64 -4
  %7 = load i32, ptr %arrayidx10.i, align 4
  %inc.i = add i32 %7, 1
  store i32 %inc.i, ptr %arrayidx10.i, align 4
  %m_reinit_stack.i = getelementptr inbounds i8, ptr %c, i64 16
  %bf.load.i = load i32, ptr %m_reinit_stack.i, align 4
  %bf.set.i = or i32 %bf.load.i, 32
  store i32 %bf.set.i, ptr %m_reinit_stack.i, align 4
  ret void
}